target datalayout = "e-m:e-p270:32:32-p271:32:32-p272:64:64-i64:64-i128:128-f80:128-n8:16:32:64-S128"
target triple = "x86_64-pc-linux-gnu"

%struct.H5O_ginfo_t = type { i32, i8, i16, i16, i8, i16, i16 }

@H5_libterm_g = external global i8, align 1
@H5P_init_g = external global i8, align 1

; Function Attrs: nounwind uwtable
define internal i32 @H5P__gcrt_group_info_enc(ptr noundef %0, ptr noundef %1, ptr noundef %2) #0 {
  %4 = alloca ptr, align 8
  %5 = alloca ptr, align 8
  %6 = alloca ptr, align 8
  %7 = alloca ptr, align 8
  %8 = alloca ptr, align 8
  store ptr %0, ptr %4, align 8, !tbaa !34
  store ptr %1, ptr %5, align 8, !tbaa !34
  store ptr %2, ptr %6, align 8, !tbaa !21
  call void @llvm.lifetime.start.p0(i64 8, ptr %7) #6
  %9 = load ptr, ptr %4, align 8, !tbaa !34
  store ptr %9, ptr %7, align 8, !tbaa !35
  call void @llvm.lifetime.start.p0(i64 8, ptr %8) #6
  %10 = load ptr, ptr %5, align 8, !tbaa !34
  store ptr %10, ptr %8, align 8, !tbaa !37
  %11 = load i8, ptr @H5P_init_g, align 1, !tbaa !10, !range !12, !noundef !13
  %12 = trunc i8 %11 to i1
  br i1 %12, label %17, label %13

13:                                               ; preds = %3
  %14 = load i8, ptr @H5_libterm_g, align 1, !tbaa !10, !range !12, !noundef !13
  %15 = trunc i8 %14 to i1
  %16 = xor i1 %15, true
  br label %17

17:                                               ; preds = %13, %3
  %18 = phi i1 [ true, %3 ], [ %16, %13 ]
  %19 = xor i1 %18, true
  %20 = xor i1 %19, true
  %21 = zext i1 %20 to i32
  %22 = sext i32 %21 to i64
  %23 = call i64 @llvm.expect.i64(i64 %22, i64 1)
  %24 = icmp ne i64 %23, 0
  br i1 %24, label %25, label %184

25:                                               ; preds = %17
  %26 = load ptr, ptr %8, align 8, !tbaa !37
  %27 = load ptr, ptr %26, align 8, !tbaa !39
  %28 = icmp ne ptr null, %27
  br i1 %28, label %29, label %180

29:                                               ; preds = %25
  br label %30

30:                                               ; preds = %29
  %31 = load ptr, ptr %7, align 8, !tbaa !35
  %32 = getelementptr inbounds nuw %struct.H5O_ginfo_t, ptr %31, i32 0, i32 0
  %33 = load i32, ptr %32, align 4, !tbaa !18
  %34 = and i32 %33, 255
  %35 = trunc i32 %34 to i8
  %36 = load ptr, ptr %8, align 8, !tbaa !37
  %37 = load ptr, ptr %36, align 8, !tbaa !39
  store i8 %35, ptr %37, align 1, !tbaa !41
  %38 = load ptr, ptr %8, align 8, !tbaa !37
  %39 = load ptr, ptr %38, align 8, !tbaa !39
  %40 = getelementptr inbounds nuw i8, ptr %39, i32 1
  store ptr %40, ptr %38, align 8, !tbaa !39
  %41 = load ptr, ptr %7, align 8, !tbaa !35
  %42 = getelementptr inbounds nuw %struct.H5O_ginfo_t, ptr %41, i32 0, i32 0
  %43 = load i32, ptr %42, align 4, !tbaa !18
  %44 = lshr i32 %43, 8
  %45 = and i32 %44, 255
  %46 = trunc i32 %45 to i8
  %47 = load ptr, ptr %8, align 8, !tbaa !37
  %48 = load ptr, ptr %47, align 8, !tbaa !39
  store i8 %46, ptr %48, align 1, !tbaa !41
  %49 = load ptr, ptr %8, align 8, !tbaa !37
  %50 = load ptr, ptr %49, align 8, !tbaa !39
  %51 = getelementptr inbounds nuw i8, ptr %50, i32 1
  store ptr %51, ptr %49, align 8, !tbaa !39
  %52 = load ptr, ptr %7, align 8, !tbaa !35
  %53 = getelementptr inbounds nuw %struct.H5O_ginfo_t, ptr %52, i32 0, i32 0
  %54 = load i32, ptr %53, align 4, !tbaa !18
  %55 = lshr i32 %54, 16
  %56 = and i32 %55, 255
  %57 = trunc i32 %56 to i8
  %58 = load ptr, ptr %8, align 8, !tbaa !37
  %59 = load ptr, ptr %58, align 8, !tbaa !39
  store i8 %57, ptr %59, align 1, !tbaa !41
  %60 = load ptr, ptr %8, align 8, !tbaa !37
  %61 = load ptr, ptr %60, align 8, !tbaa !39
  %62 = getelementptr inbounds nuw i8, ptr %61, i32 1
  store ptr %62, ptr %60, align 8, !tbaa !39
  %63 = load ptr, ptr %7, align 8, !tbaa !35
  %64 = getelementptr inbounds nuw %struct.H5O_ginfo_t, ptr %63, i32 0, i32 0
  %65 = load i32, ptr %64, align 4, !tbaa !18
  %66 = lshr i32 %65, 24
  %67 = and i32 %66, 255
  %68 = trunc i32 %67 to i8
  %69 = load ptr, ptr %8, align 8, !tbaa !37
  %70 = load ptr, ptr %69, align 8, !tbaa !39
  store i8 %68, ptr %70, align 1, !tbaa !41
  %71 = load ptr, ptr %8, align 8, !tbaa !37
  %72 = load ptr, ptr %71, align 8, !tbaa !39
  %73 = getelementptr inbounds nuw i8, ptr %72, i32 1
  store ptr %73, ptr %71, align 8, !tbaa !39
  br label %74

74:                                               ; preds = %30
  br label %75

75:                                               ; preds = %74
  br label %76

76:                                               ; preds = %75
  %77 = load ptr, ptr %7, align 8, !tbaa !35
  %78 = getelementptr inbounds nuw %struct.H5O_ginfo_t, ptr %77, i32 0, i32 2
  %79 = load i16, ptr %78, align 2, !tbaa !24
  %80 = zext i16 %79 to i32
  %81 = and i32 %80, 255
  %82 = trunc i32 %81 to i8
  %83 = load ptr, ptr %8, align 8, !tbaa !37
  %84 = load ptr, ptr %83, align 8, !tbaa !39
  store i8 %82, ptr %84, align 1, !tbaa !41
  %85 = load ptr, ptr %8, align 8, !tbaa !37
  %86 = load ptr, ptr %85, align 8, !tbaa !39
  %87 = getelementptr inbounds nuw i8, ptr %86, i32 1
  store ptr %87, ptr %85, align 8, !tbaa !39
  %88 = load ptr, ptr %7, align 8, !tbaa !35
  %89 = getelementptr inbounds nuw %struct.H5O_ginfo_t, ptr %88, i32 0, i32 2
  %90 = load i16, ptr %89, align 2, !tbaa !24
  %91 = zext i16 %90 to i32
  %92 = lshr i32 %91, 8
  %93 = and i32 %92, 255
  %94 = trunc i32 %93 to i8
  %95 = load ptr, ptr %8, align 8, !tbaa !37
  %96 = load ptr, ptr %95, align 8, !tbaa !39
  store i8 %94, ptr %96, align 1, !tbaa !41
  %97 = load ptr, ptr %8, align 8, !tbaa !37
  %98 = load ptr, ptr %97, align 8, !tbaa !39
  %99 = getelementptr inbounds nuw i8, ptr %98, i32 1
  store ptr %99, ptr %97, align 8, !tbaa !39
  br label %100

100:                                              ; preds = %76
  br label %101

101:                                              ; preds = %100
  br label %102

102:                                              ; preds = %101
  %103 = load ptr, ptr %7, align 8, !tbaa !35
  %104 = getelementptr inbounds nuw %struct.H5O_ginfo_t, ptr %103, i32 0, i32 3
  %105 = load i16, ptr %104, align 4, !tbaa !25
  %106 = zext i16 %105 to i32
  %107 = and i32 %106, 255
  %108 = trunc i32 %107 to i8
  %109 = load ptr, ptr %8, align 8, !tbaa !37
  %110 = load ptr, ptr %109, align 8, !tbaa !39
  store i8 %108, ptr %110, align 1, !tbaa !41
  %111 = load ptr, ptr %8, align 8, !tbaa !37
  %112 = load ptr, ptr %111, align 8, !tbaa !39
  %113 = getelementptr inbounds nuw i8, ptr %112, i32 1
  store ptr %113, ptr %111, align 8, !tbaa !39
  %114 = load ptr, ptr %7, align 8, !tbaa !35
  %115 = getelementptr inbounds nuw %struct.H5O_ginfo_t, ptr %114, i32 0, i32 3
  %116 = load i16, ptr %115, align 4, !tbaa !25
  %117 = zext i16 %116 to i32
  %118 = lshr i32 %117, 8
  %119 = and i32 %118, 255
  %120 = trunc i32 %119 to i8
  %121 = load ptr, ptr %8, align 8, !tbaa !37
  %122 = load ptr, ptr %121, align 8, !tbaa !39
  store i8 %120, ptr %122, align 1, !tbaa !41
  %123 = load ptr, ptr %8, align 8, !tbaa !37
  %124 = load ptr, ptr %123, align 8, !tbaa !39
  %125 = getelementptr inbounds nuw i8, ptr %124, i32 1
  store ptr %125, ptr %123, align 8, !tbaa !39
  br label %126

126:                                              ; preds = %102
  br label %127

127:                                              ; preds = %126
  br label %128

128:                                              ; preds = %127
  %129 = load ptr, ptr %7, align 8, !tbaa !35
  %130 = getelementptr inbounds nuw %struct.H5O_ginfo_t, ptr %129, i32 0, i32 5
  %131 = load i16, ptr %130, align 4, !tbaa !29
  %132 = zext i16 %131 to i32
  %133 = and i32 %132, 255
  %134 = trunc i32 %133 to i8
  %135 = load ptr, ptr %8, align 8, !tbaa !37
  %136 = load ptr, ptr %135, align 8, !tbaa !39
  store i8 %134, ptr %136, align 1, !tbaa !41
  %137 = load ptr, ptr %8, align 8, !tbaa !37
  %138 = load ptr, ptr %137, align 8, !tbaa !39
  %139 = getelementptr inbounds nuw i8, ptr %138, i32 1
  store ptr %139, ptr %137, align 8, !tbaa !39
  %140 = load ptr, ptr %7, align 8, !tbaa !35
  %141 = getelementptr inbounds nuw %struct.H5O_ginfo_t, ptr %140, i32 0, i32 5
  %142 = load i16, ptr %141, align 4, !tbaa !29
  %143 = zext i16 %142 to i32
  %144 = lshr i32 %143, 8
  %145 = and i32 %144, 255
  %146 = trunc i32 %145 to i8
  %147 = load ptr, ptr %8, align 8, !tbaa !37
  %148 = load ptr, ptr %147, align 8, !tbaa !39
  store i8 %146, ptr %148, align 1, !tbaa !41
  %149 = load ptr, ptr %8, align 8, !tbaa !37
  %150 = load ptr, ptr %149, align 8, !tbaa !39
  %151 = getelementptr inbounds nuw i8, ptr %150, i32 1
  store ptr %151, ptr %149, align 8, !tbaa !39
  br label %152

152:                                              ; preds = %128
  br label %153

153:                                              ; preds = %152
  br label %154

154:                                              ; preds = %153
  %155 = load ptr, ptr %7, align 8, !tbaa !35
  %156 = getelementptr inbounds nuw %struct.H5O_ginfo_t, ptr %155, i32 0, i32 6
  %157 = load i16, ptr %156, align 2, !tbaa !30
  %158 = zext i16 %157 to i32
  %159 = and i32 %158, 255
  %160 = trunc i32 %159 to i8
  %161 = load ptr, ptr %8, align 8, !tbaa !37
  %162 = load ptr, ptr %161, align 8, !tbaa !39
  store i8 %160, ptr %162, align 1, !tbaa !41
  %163 = load ptr, ptr %8, align 8, !tbaa !37
  %164 = load ptr, ptr %163, align 8, !tbaa !39
  %165 = getelementptr inbounds nuw i8, ptr %164, i32 1
  store ptr %165, ptr %163, align 8, !tbaa !39
  %166 = load ptr, ptr %7, align 8, !tbaa !35
  %167 = getelementptr inbounds nuw %struct.H5O_ginfo_t, ptr %166, i32 0, i32 6
  %168 = load i16, ptr %167, align 2, !tbaa !30
  %169 = zext i16 %168 to i32
  %170 = lshr i32 %169, 8
  %171 = and i32 %170, 255
  %172 = trunc i32 %171 to i8
  %173 = load ptr, ptr %8, align 8, !tbaa !37
  %174 = load ptr, ptr %173, align 8, !tbaa !39
  store i8 %172, ptr %174, align 1, !tbaa !41
  %175 = load ptr, ptr %8, align 8, !tbaa !37
  %176 = load ptr, ptr %175, align 8, !tbaa !39
  %177 = getelementptr inbounds nuw i8, ptr %176, i32 1
  store ptr %177, ptr %175, align 8, !tbaa !39
  br label %178

178:                                              ; preds = %154
  br label %179

179:                                              ; preds = %178
  br label %180

180:                                              ; preds = %179, %25
  %181 = load ptr, ptr %6, align 8, !tbaa !21
  %182 = load i64, ptr %181, align 8, !tbaa !14
  %183 = add i64 %182, 12
  store i64 %183, ptr %181, align 8, !tbaa !14
  br label %184

184:                                              ; preds = %180, %17
  call void @llvm.lifetime.end.p0(i64 8, ptr %8) #6
  call void @llvm.lifetime.end.p0(i64 8, ptr %7) #6
  ret i32 0
}