; Function Attrs: mustprogress nofree norecurse nosync nounwind willreturn memory(readwrite, inaccessiblemem: none) uwtable
define internal noundef i32 @H5P__gcrt_group_info_enc(ptr noundef readonly captures(none) %0, ptr noundef captures(none) %1, ptr noundef captures(none) %2) #4 {
  %4 = load i8, ptr @H5P_init_g, align 1, !tbaa !3, !range !7, !noundef !8
  %5 = trunc nuw i8 %4 to i1
  %6 = load i8, ptr @H5_libterm_g, align 1, !range !7
  %7 = trunc nuw i8 %6 to i1
  %8 = xor i1 %7, true
  %9 = select i1 %5, i1 true, i1 %8
  br i1 %9, label %10, label %75, !prof !9

10:                                               ; preds = %3
  %11 = load ptr, ptr %1, align 8, !tbaa !29
  %.not = icmp eq ptr %11, null
  br i1 %.not, label %72, label %12

12:                                               ; preds = %10
  %13 = load i32, ptr %0, align 4, !tbaa !15
  %14 = trunc i32 %13 to i8
  store i8 %14, ptr %11, align 1, !tbaa !32
  %15 = load ptr, ptr %1, align 8, !tbaa !29
  %16 = getelementptr inbounds nuw i8, ptr %15, i64 1
  store ptr %16, ptr %1, align 8, !tbaa !29
  %17 = load i32, ptr %0, align 4, !tbaa !15
  %18 = lshr i32 %17, 8
  %19 = trunc i32 %18 to i8
  store i8 %19, ptr %16, align 1, !tbaa !32
  %20 = load ptr, ptr %1, align 8, !tbaa !29
  %21 = getelementptr inbounds nuw i8, ptr %20, i64 1
  store ptr %21, ptr %1, align 8, !tbaa !29
  %22 = load i32, ptr %0, align 4, !tbaa !15
  %23 = lshr i32 %22, 16
  %24 = trunc i32 %23 to i8
  store i8 %24, ptr %21, align 1, !tbaa !32
  %25 = load ptr, ptr %1, align 8, !tbaa !29
  %26 = getelementptr inbounds nuw i8, ptr %25, i64 1
  store ptr %26, ptr %1, align 8, !tbaa !29
  %27 = load i32, ptr %0, align 4, !tbaa !15
  %28 = lshr i32 %27, 24
  %29 = trunc nuw i32 %28 to i8
  store i8 %29, ptr %26, align 1, !tbaa !32
  %30 = load ptr, ptr %1, align 8, !tbaa !29
  %31 = getelementptr inbounds nuw i8, ptr %30, i64 1
  store ptr %31, ptr %1, align 8, !tbaa !29
  %32 = getelementptr inbounds nuw i8, ptr %0, i64 6
  %33 = load i16, ptr %32, align 2, !tbaa !20
  %34 = trunc i16 %33 to i8
  store i8 %34, ptr %31, align 1, !tbaa !32
  %35 = load ptr, ptr %1, align 8, !tbaa !29
  %36 = getelementptr inbounds nuw i8, ptr %35, i64 1
  store ptr %36, ptr %1, align 8, !tbaa !29
  %37 = load i16, ptr %32, align 2, !tbaa !20
  %38 = lshr i16 %37, 8
  %39 = trunc nuw i16 %38 to i8
  store i8 %39, ptr %36, align 1, !tbaa !32
  %40 = load ptr, ptr %1, align 8, !tbaa !29
  %41 = getelementptr inbounds nuw i8, ptr %40, i64 1
  store ptr %41, ptr %1, align 8, !tbaa !29
  %42 = getelementptr inbounds nuw i8, ptr %0, i64 8
  %43 = load i16, ptr %42, align 4, !tbaa !21
  %44 = trunc i16 %43 to i8
  store i8 %44, ptr %41, align 1, !tbaa !32
  %45 = load ptr, ptr %1, align 8, !tbaa !29
  %46 = getelementptr inbounds nuw i8, ptr %45, i64 1
  store ptr %46, ptr %1, align 8, !tbaa !29
  %47 = load i16, ptr %42, align 4, !tbaa !21
  %48 = lshr i16 %47, 8
  %49 = trunc nuw i16 %48 to i8
  store i8 %49, ptr %46, align 1, !tbaa !32
  %50 = load ptr, ptr %1, align 8, !tbaa !29
  %51 = getelementptr inbounds nuw i8, ptr %50, i64 1
  store ptr %51, ptr %1, align 8, !tbaa !29
  %52 = getelementptr inbounds nuw i8, ptr %0, i64 12
  %53 = load i16, ptr %52, align 4, !tbaa !24
  %54 = trunc i16 %53 to i8
  store i8 %54, ptr %51, align 1, !tbaa !32
  %55 = load ptr, ptr %1, align 8, !tbaa !29
  %56 = getelementptr inbounds nuw i8, ptr %55, i64 1
  store ptr %56, ptr %1, align 8, !tbaa !29
  %57 = load i16, ptr %52, align 4, !tbaa !24
  %58 = lshr i16 %57, 8
  %59 = trunc nuw i16 %58 to i8
  store i8 %59, ptr %56, align 1, !tbaa !32
  %60 = load ptr, ptr %1, align 8, !tbaa !29
  %61 = getelementptr inbounds nuw i8, ptr %60, i64 1
  store ptr %61, ptr %1, align 8, !tbaa !29
  %62 = getelementptr inbounds nuw i8, ptr %0, i64 14
  %63 = load i16, ptr %62, align 2, !tbaa !25
  %64 = trunc i16 %63 to i8
  store i8 %64, ptr %61, align 1, !tbaa !32
  %65 = load ptr, ptr %1, align 8, !tbaa !29
  %66 = getelementptr inbounds nuw i8, ptr %65, i64 1
  store ptr %66, ptr %1, align 8, !tbaa !29
  %67 = load i16, ptr %62, align 2, !tbaa !25
  %68 = lshr i16 %67, 8
  %69 = trunc nuw i16 %68 to i8
  store i8 %69, ptr %66, align 1, !tbaa !32
  %70 = load ptr, ptr %1, align 8, !tbaa !29
  %71 = getelementptr inbounds nuw i8, ptr %70, i64 1
  store ptr %71, ptr %1, align 8, !tbaa !29
  br label %72

72:                                               ; preds = %12, %10
  %73 = load i64, ptr %2, align 8, !tbaa !10
  %74 = add i64 %73, 12
  store i64 %74, ptr %2, align 8, !tbaa !10
  br label %75

75:                                               ; preds = %72, %3
  ret i32 0
}